target datalayout = "e-m:e-p270:32:32-p271:32:32-p272:64:64-i64:64-i128:128-f80:128-n8:16:32:64-S128"
target triple = "x86_64-pc-linux-gnu"

%struct.OutputConfiguration = type { %struct.MPEG4AudioConfig, [256 x [3 x i8]], i32, %struct.AVChannelLayout, i32, %struct.AACUSACConfig }
%struct.MPEG4AudioConfig = type { i32, i32, i32, i32, i32, i32, i32, i32, i32, i32, i32, i32 }
%struct.AVChannelLayout = type { i32, i32, %union.anon, ptr }
%union.anon = type { i64 }
%struct.AACUSACConfig = type { i8, i16, i16, [64 x %struct.AACUsacElemConfig], i32, %struct.anon.3 }
%struct.AACUsacElemConfig = type { i32, i8, i8, %struct.anon, %struct.anon.1, %struct.anon.2 }
%struct.anon = type { i32, i8, %struct.anon.0 }
%struct.anon.0 = type { i8, i8, i8, i8, i8, i8, i8, i8 }
%struct.anon.1 = type { i8, i8, i8, i8, i8, i8, i8, i8, i8 }
%struct.anon.2 = type { i32, i8, i32, i32, ptr }
%struct.anon.3 = type { i8, i8, [64 x %struct.AACUSACLoudnessInfo], i8, i8, [64 x %struct.AACUSACLoudnessInfo] }
%struct.AACUSACLoudnessInfo = type <{ i16, %struct.anon.4, %struct.anon.5, i8, [16 x %struct.anon.6], i8 }>
%struct.anon.4 = type { i16 }
%struct.anon.5 = type { i32 }
%struct.anon.6 = type { i8, i8, i8 }
%struct.ChannelElement = type { i32, i8, [128 x i8], [11 x i8], [2 x %struct.SingleChannelElement], %struct.ChannelCoupling, [8 x i8], %struct.AACUsacStereo }
%struct.SingleChannelElement = type { %struct.IndividualChannelStream, %struct.AACUsacElemData, %struct.TemporalNoiseShaping, [128 x i32], [128 x i32], %union.anon.12, [12 x i8], %union.anon.13, %union.anon.14, %union.anon.15, %union.anon.16, %union.anon.17, %union.anon.18, %union.anon.19 }
%struct.IndividualChannelStream = type { i8, [2 x i32], [2 x i8], i32, i32, [8 x i8], %struct.LongTermPrediction, ptr, i32, i32, i32, i32, i32, i32, [41 x i8], [8 x i8] }
%struct.LongTermPrediction = type { i8, i16, %union.anon.7, [40 x i8] }
%union.anon.7 = type { i32 }
%struct.AACUsacElemData = type { i8, i8, i8, [16 x i8], %struct.anon.8, %struct.anon.9, %struct.anon.10, %struct.AACArithState }
%struct.anon.8 = type { i16, i32 }
%struct.anon.9 = type { i32, i8 }
%struct.anon.10 = type { i8, [8 x [8 x i32]] }
%struct.AACArithState = type { [513 x i8], i32, [4 x i8], i16 }
%struct.TemporalNoiseShaping = type { i32, [8 x i32], [8 x [4 x i32]], [8 x [4 x i32]], [8 x [4 x i32]], %union.anon.11 }
%union.anon.11 = type { [8 x [4 x [20 x i32]]] }
%union.anon.12 = type { [128 x i32] }
%union.anon.13 = type { [1024 x i32] }
%union.anon.14 = type { [1024 x i32] }
%union.anon.15 = type { [1536 x i32] }
%union.anon.16 = type { [2048 x i32] }
%union.anon.17 = type { [3072 x i32] }
%union.anon.18 = type { ptr }
%union.anon.19 = type { ptr }
%struct.ChannelCoupling = type { i32, i32, [8 x i32], [8 x i32], [8 x i32], %union.anon.20 }
%union.anon.20 = type { [16 x [120 x i32]] }
%struct.AACUsacStereo = type { i8, i8, i8, i8, i8, i8, i8, i8, [128 x i8], [8 x i8], %union.anon.21, %union.anon.22, %union.anon.23, %union.anon.24, %union.anon.25, %union.anon.26, %union.anon.27 }
%union.anon.21 = type { [1024 x i32] }
%union.anon.22 = type { [1024 x i32] }
%union.anon.23 = type { [1024 x i32] }
%union.anon.24 = type { [1024 x i32] }
%union.anon.25 = type { [1024 x i32] }
%union.anon.26 = type { [1024 x i32] }
%union.anon.27 = type { [1024 x i32] }

; Function Attrs: nounwind uwtable
define i32 @ff_aac_usac_reset_state(ptr noundef %0, ptr noundef %1) #0 {
  %3 = alloca ptr, align 8
  %4 = alloca ptr, align 8
  %5 = alloca ptr, align 8
  %6 = alloca [3 x i32], align 4
  %7 = alloca ptr, align 8
  %8 = alloca i32, align 4
  %9 = alloca i32, align 4
  %10 = alloca i32, align 4
  %11 = alloca i32, align 4
  %12 = alloca i32, align 4
  %13 = alloca ptr, align 8
  %14 = alloca ptr, align 8
  %15 = alloca i32, align 4
  %16 = alloca ptr, align 8
  %17 = alloca ptr, align 8
  store ptr %0, ptr %3, align 8, !tbaa !4
  store ptr %1, ptr %4, align 8, !tbaa !9
  call void @llvm.lifetime.start.p0(i64 8, ptr %5) #12
  %18 = load ptr, ptr %4, align 8, !tbaa !9
  %19 = getelementptr inbounds nuw %struct.OutputConfiguration, ptr %18, i32 0, i32 5
  store ptr %19, ptr %5, align 8, !tbaa !11
  call void @llvm.lifetime.start.p0(i64 12, ptr %6) #12
  call void @llvm.memset.p0.i64(ptr align 4 %6, i8 0, i64 12, i1 false)
  call void @llvm.lifetime.start.p0(i64 8, ptr %7) #12
  call void @llvm.lifetime.start.p0(i64 4, ptr %8) #12
  call void @llvm.lifetime.start.p0(i64 4, ptr %9) #12
  call void @llvm.lifetime.start.p0(i64 4, ptr %10) #12
  call void @llvm.lifetime.start.p0(i64 4, ptr %11) #12
  store i32 0, ptr %11, align 4, !tbaa !13
  br label %20

20:                                               ; preds = %112, %2
  %21 = load i32, ptr %11, align 4, !tbaa !13
  %22 = load ptr, ptr %5, align 8, !tbaa !11
  %23 = getelementptr inbounds nuw %struct.AACUSACConfig, ptr %22, i32 0, i32 4
  %24 = load i32, ptr %23, align 8, !tbaa !15
  %25 = icmp slt i32 %21, %24
  br i1 %25, label %27, label %26

26:                                               ; preds = %20
  store i32 2, ptr %12, align 4
  call void @llvm.lifetime.end.p0(i64 4, ptr %11) #12
  br label %115

27:                                               ; preds = %20
  call void @llvm.lifetime.start.p0(i64 8, ptr %13) #12
  %28 = load ptr, ptr %5, align 8, !tbaa !11
  %29 = getelementptr inbounds nuw %struct.AACUSACConfig, ptr %28, i32 0, i32 3
  %30 = load i32, ptr %11, align 4, !tbaa !13
  %31 = sext i32 %30 to i64
  %32 = getelementptr inbounds [64 x %struct.AACUsacElemConfig], ptr %29, i64 0, i64 %31
  store ptr %32, ptr %13, align 8, !tbaa !19
  %33 = load ptr, ptr %13, align 8, !tbaa !19
  %34 = getelementptr inbounds nuw %struct.AACUsacElemConfig, ptr %33, i32 0, i32 0
  %35 = load i32, ptr %34, align 8, !tbaa !21
  %36 = icmp eq i32 %35, 3
  br i1 %36, label %37, label %38

37:                                               ; preds = %27
  store i32 4, ptr %12, align 4
  br label %109

38:                                               ; preds = %27
  %39 = load ptr, ptr %13, align 8, !tbaa !19
  %40 = getelementptr inbounds nuw %struct.AACUsacElemConfig, ptr %39, i32 0, i32 0
  %41 = load i32, ptr %40, align 8, !tbaa !21
  switch i32 %41, label %54 [
    i32 0, label %42
    i32 1, label %46
    i32 2, label %50
  ]

42:                                               ; preds = %38
  store i32 1, ptr %10, align 4, !tbaa !13
  store i32 0, ptr %8, align 4, !tbaa !13
  %43 = getelementptr inbounds [3 x i32], ptr %6, i64 0, i64 0
  %44 = load i32, ptr %43, align 4, !tbaa !13
  %45 = add nsw i32 %44, 1
  store i32 %45, ptr %43, align 4, !tbaa !13
  store i32 %44, ptr %9, align 4, !tbaa !13
  br label %54

46:                                               ; preds = %38
  store i32 2, ptr %10, align 4, !tbaa !13
  store i32 1, ptr %8, align 4, !tbaa !13
  %47 = getelementptr inbounds [3 x i32], ptr %6, i64 0, i64 1
  %48 = load i32, ptr %47, align 4, !tbaa !13
  %49 = add nsw i32 %48, 1
  store i32 %49, ptr %47, align 4, !tbaa !13
  store i32 %48, ptr %9, align 4, !tbaa !13
  br label %54

50:                                               ; preds = %38
  store i32 1, ptr %10, align 4, !tbaa !13
  store i32 3, ptr %8, align 4, !tbaa !13
  %51 = getelementptr inbounds [3 x i32], ptr %6, i64 0, i64 2
  %52 = load i32, ptr %51, align 4, !tbaa !13
  %53 = add nsw i32 %52, 1
  store i32 %53, ptr %51, align 4, !tbaa !13
  store i32 %52, ptr %9, align 4, !tbaa !13
  br label %54

54:                                               ; preds = %38, %50, %46, %42
  %55 = load ptr, ptr %3, align 8, !tbaa !4
  %56 = load i32, ptr %8, align 4, !tbaa !13
  %57 = load i32, ptr %9, align 4, !tbaa !13
  %58 = call ptr @ff_aac_get_che(ptr noundef %55, i32 noundef %56, i32 noundef %57)
  store ptr %58, ptr %7, align 8, !tbaa !28
  %59 = load ptr, ptr %7, align 8, !tbaa !28
  %60 = icmp ne ptr %59, null
  br i1 %60, label %61, label %108

61:                                               ; preds = %54
  call void @llvm.lifetime.start.p0(i64 8, ptr %14) #12
  %62 = load ptr, ptr %7, align 8, !tbaa !28
  %63 = getelementptr inbounds nuw %struct.ChannelElement, ptr %62, i32 0, i32 7
  store ptr %63, ptr %14, align 8, !tbaa !30
  %64 = load ptr, ptr %14, align 8, !tbaa !30
  call void @llvm.memset.p0.i64(ptr align 16 %64, i8 0, i64 28816, i1 false)
  %65 = load ptr, ptr %13, align 8, !tbaa !19
  %66 = getelementptr inbounds nuw %struct.AACUsacElemConfig, ptr %65, i32 0, i32 3
  %67 = getelementptr inbounds nuw %struct.anon, ptr %66, i32 0, i32 0
  %68 = load i32, ptr %67, align 8, !tbaa !32
  %69 = icmp ne i32 %68, 0
  br i1 %69, label %70, label %75

70:                                               ; preds = %61
  %71 = load ptr, ptr %3, align 8, !tbaa !4
  %72 = load ptr, ptr %7, align 8, !tbaa !28
  %73 = load ptr, ptr %13, align 8, !tbaa !19
  %74 = call i32 @ff_aac_sbr_config_usac(ptr noundef %71, ptr noundef %72, ptr noundef %73)
  br label %75

75:                                               ; preds = %70, %61
  call void @llvm.lifetime.start.p0(i64 4, ptr %15) #12
  store i32 0, ptr %15, align 4, !tbaa !13
  br label %76

76:                                               ; preds = %104, %75
  %77 = load i32, ptr %15, align 4, !tbaa !13
  %78 = load i32, ptr %10, align 4, !tbaa !13
  %79 = icmp slt i32 %77, %78
  br i1 %79, label %81, label %80

80:                                               ; preds = %76
  store i32 6, ptr %12, align 4
  call void @llvm.lifetime.end.p0(i64 4, ptr %15) #12
  br label %107

81:                                               ; preds = %76
  call void @llvm.lifetime.start.p0(i64 8, ptr %16) #12
  %82 = load ptr, ptr %7, align 8, !tbaa !28
  %83 = getelementptr inbounds nuw %struct.ChannelElement, ptr %82, i32 0, i32 4
  %84 = load i32, ptr %10, align 4, !tbaa !13
  %85 = sext i32 %84 to i64
  %86 = getelementptr inbounds [2 x %struct.SingleChannelElement], ptr %83, i64 0, i64 %85
  store ptr %86, ptr %16, align 8, !tbaa !33
  call void @llvm.lifetime.start.p0(i64 8, ptr %17) #12
  %87 = load ptr, ptr %16, align 8, !tbaa !33
  %88 = getelementptr inbounds nuw %struct.SingleChannelElement, ptr %87, i32 0, i32 1
  store ptr %88, ptr %17, align 8, !tbaa !35
  %89 = load ptr, ptr %17, align 8, !tbaa !35
  call void @llvm.memset.p0.i64(ptr align 4 %89, i8 0, i64 824, i1 false)
  %90 = load i32, ptr %10, align 4, !tbaa !13
  %91 = icmp ne i32 %90, 0
  br i1 %91, label %96, label %92

92:                                               ; preds = %81
  %93 = load ptr, ptr %17, align 8, !tbaa !35
  %94 = getelementptr inbounds nuw %struct.AACUsacElemData, ptr %93, i32 0, i32 5
  %95 = getelementptr inbounds nuw %struct.anon.9, ptr %94, i32 0, i32 0
  store i32 12345, ptr %95, align 4, !tbaa !37
  br label %103

96:                                               ; preds = %81
  %97 = load ptr, ptr %7, align 8, !tbaa !28
  %98 = getelementptr inbounds nuw %struct.ChannelElement, ptr %97, i32 0, i32 4
  %99 = getelementptr inbounds [2 x %struct.SingleChannelElement], ptr %98, i64 0, i64 1
  %100 = getelementptr inbounds nuw %struct.SingleChannelElement, ptr %99, i32 0, i32 1
  %101 = getelementptr inbounds nuw %struct.AACUsacElemData, ptr %100, i32 0, i32 5
  %102 = getelementptr inbounds nuw %struct.anon.9, ptr %101, i32 0, i32 0
  store i32 67890, ptr %102, align 4, !tbaa !43
  br label %103

103:                                              ; preds = %96, %92
  call void @llvm.lifetime.end.p0(i64 8, ptr %17) #12
  call void @llvm.lifetime.end.p0(i64 8, ptr %16) #12
  br label %104

104:                                              ; preds = %103
  %105 = load i32, ptr %15, align 4, !tbaa !13
  %106 = add nsw i32 %105, 1
  store i32 %106, ptr %15, align 4, !tbaa !13
  br label %76, !llvm.loop !49

107:                                              ; preds = %80
  call void @llvm.lifetime.end.p0(i64 8, ptr %14) #12
  br label %108

108:                                              ; preds = %107, %54
  store i32 0, ptr %12, align 4
  br label %109

109:                                              ; preds = %108, %37
  call void @llvm.lifetime.end.p0(i64 8, ptr %13) #12
  %110 = load i32, ptr %12, align 4
  switch i32 %110, label %116 [
    i32 0, label %111
    i32 4, label %112
  ]

111:                                              ; preds = %109
  br label %112

112:                                              ; preds = %111, %109
  %113 = load i32, ptr %11, align 4, !tbaa !13
  %114 = add nsw i32 %113, 1
  store i32 %114, ptr %11, align 4, !tbaa !13
  br label %20, !llvm.loop !51

115:                                              ; preds = %26
  store i32 1, ptr %12, align 4
  call void @llvm.lifetime.end.p0(i64 4, ptr %10) #12
  call void @llvm.lifetime.end.p0(i64 4, ptr %9) #12
  call void @llvm.lifetime.end.p0(i64 4, ptr %8) #12
  call void @llvm.lifetime.end.p0(i64 8, ptr %7) #12
  call void @llvm.lifetime.end.p0(i64 12, ptr %6) #12
  call void @llvm.lifetime.end.p0(i64 8, ptr %5) #12
  ret i32 0

116:                                              ; preds = %109
  unreachable
}