; Function Attrs: nounwind uwtable
define noundef i32 @ff_aac_usac_reset_state(ptr noundef %0, ptr noundef %1) local_unnamed_addr #0 {
  %3 = getelementptr inbounds nuw i8, ptr %1, i64 4960
  %4 = load i32, ptr %3, align 8, !tbaa !4
  %5 = icmp sgt i32 %4, 0
  br i1 %5, label %.lr.ph46, label %._crit_edge

.lr.ph46:                                         ; preds = %2
  %6 = getelementptr inbounds nuw i8, ptr %1, i64 864
  br label %7

._crit_edge:                                      ; preds = %.loopexit, %2
  ret i32 0

7:                                                ; preds = %.lr.ph46, %.loopexit
  %indvars.iv = phi i64 [ 0, %.lr.ph46 ], [ %indvars.iv.next, %.loopexit ]
  %.sroa.0.045 = phi i32 [ 0, %.lr.ph46 ], [ %.sroa.0.1, %.loopexit ]
  %.sroa.5.044 = phi i32 [ 0, %.lr.ph46 ], [ %.sroa.5.1, %.loopexit ]
  %.sroa.7.043 = phi i32 [ 0, %.lr.ph46 ], [ %.sroa.7.1, %.loopexit ]
  %.02742 = phi i32 [ undef, %.lr.ph46 ], [ %.1, %.loopexit ]
  %.02940 = phi i32 [ undef, %.lr.ph46 ], [ %.130, %.loopexit ]
  %.03239 = phi i32 [ undef, %.lr.ph46 ], [ %.133, %.loopexit ]
  %8 = getelementptr inbounds nuw [64 x %struct.AACUsacElemConfig], ptr %6, i64 0, i64 %indvars.iv
  %9 = load i32, ptr %8, align 8, !tbaa !11
  switch i32 %9, label %16 [
    i32 3, label %.loopexit
    i32 0, label %10
    i32 1, label %12
    i32 2, label %14
  ]

10:                                               ; preds = %7
  %11 = add nsw i32 %.sroa.0.045, 1
  br label %16

12:                                               ; preds = %7
  %13 = add nsw i32 %.sroa.5.044, 1
  br label %16

14:                                               ; preds = %7
  %15 = add nsw i32 %.sroa.7.043, 1
  br label %16

16:                                               ; preds = %7, %14, %12, %10
  %.234 = phi i32 [ %.sroa.7.043, %14 ], [ %.sroa.5.044, %12 ], [ %.sroa.0.045, %10 ], [ %.03239, %7 ]
  %.231 = phi i32 [ 1, %14 ], [ 2, %12 ], [ 1, %10 ], [ %.02940, %7 ]
  %.2 = phi i32 [ 3, %14 ], [ 1, %12 ], [ 0, %10 ], [ %.02742, %7 ]
  %.sroa.7.2 = phi i32 [ %15, %14 ], [ %.sroa.7.043, %12 ], [ %.sroa.7.043, %10 ], [ %.sroa.7.043, %7 ]
  %.sroa.5.2 = phi i32 [ %.sroa.5.044, %14 ], [ %13, %12 ], [ %.sroa.5.044, %10 ], [ %.sroa.5.044, %7 ]
  %.sroa.0.2 = phi i32 [ %.sroa.0.045, %14 ], [ %.sroa.0.045, %12 ], [ %11, %10 ], [ %.sroa.0.045, %7 ]
  %17 = tail call ptr @ff_aac_get_che(ptr noundef %0, i32 noundef %.2, i32 noundef %.234) #13
  %.not = icmp eq ptr %17, null
  br i1 %.not, label %.loopexit, label %18

18:                                               ; preds = %16
  %19 = getelementptr inbounds nuw i8, ptr %17, i64 88640
  tail call void @llvm.memset.p0.i64(ptr noundef nonnull align 16 dereferenceable(28816) %19, i8 0, i64 28816, i1 false)
  %20 = getelementptr inbounds nuw i8, ptr %8, i64 8
  %21 = load i32, ptr %20, align 8, !tbaa !19
  %.not37 = icmp eq i32 %21, 0
  br i1 %.not37, label %.lr.ph, label %22

22:                                               ; preds = %18
  %23 = tail call i32 @ff_aac_sbr_config_usac(ptr noundef %0, ptr noundef nonnull %17, ptr noundef nonnull %8) #13
  br label %.lr.ph

.lr.ph:                                           ; preds = %18, %22
  %24 = getelementptr inbounds nuw i8, ptr %17, i64 144
  %25 = zext nneg i32 %.231 to i64
  %.idx = mul nuw nsw i64 %25, 40352
  %26 = getelementptr inbounds nuw i8, ptr %24, i64 %.idx
  %27 = getelementptr inbounds nuw i8, ptr %26, i64 168
  %28 = getelementptr inbounds nuw i8, ptr %17, i64 40692
  br label %29

29:                                               ; preds = %.lr.ph, %29
  %.038 = phi i32 [ 0, %.lr.ph ], [ %30, %29 ]
  tail call void @llvm.memset.p0.i64(ptr noundef nonnull align 4 dereferenceable(824) %27, i8 0, i64 824, i1 false)
  store i32 67890, ptr %28, align 4, !tbaa !20
  %30 = add nuw nsw i32 %.038, 1
  %exitcond.not = icmp eq i32 %30, %.231
  br i1 %exitcond.not, label %.loopexit, label %29, !llvm.loop !31

.loopexit:                                        ; preds = %29, %16, %7
  %.133 = phi i32 [ %.03239, %7 ], [ %.234, %16 ], [ %.234, %29 ]
  %.130 = phi i32 [ %.02940, %7 ], [ %.231, %16 ], [ %.231, %29 ]
  %.1 = phi i32 [ %.02742, %7 ], [ %.2, %16 ], [ %.2, %29 ]
  %.sroa.7.1 = phi i32 [ %.sroa.7.043, %7 ], [ %.sroa.7.2, %16 ], [ %.sroa.7.2, %29 ]
  %.sroa.5.1 = phi i32 [ %.sroa.5.044, %7 ], [ %.sroa.5.2, %16 ], [ %.sroa.5.2, %29 ]
  %.sroa.0.1 = phi i32 [ %.sroa.0.045, %7 ], [ %.sroa.0.2, %16 ], [ %.sroa.0.2, %29 ]
  %indvars.iv.next = add nuw nsw i64 %indvars.iv, 1
  %31 = load i32, ptr %3, align 8, !tbaa !4
  %32 = sext i32 %31 to i64
  %33 = icmp slt i64 %indvars.iv.next, %32
  br i1 %33, label %7, label %._crit_edge, !llvm.loop !33
}